target datalayout = "e-m:e-p270:32:32-p271:32:32-p272:64:64-i64:64-i128:128-f80:128-n8:16:32:64-S128"
target triple = "x86_64-pc-linux-gnu"

%struct.AVHWFramesContext = type { ptr, ptr, ptr, ptr, ptr, ptr, ptr, i32, i32, i32, i32, i32 }
%struct.VAAPIFramesContext = type { %struct.AVVAAPIFramesContext, ptr, i32, i32, i32, i32 }
%struct.AVVAAPIFramesContext = type { ptr, i32, ptr, i32 }

; Function Attrs: nounwind uwtable
define internal void @vaapi_frames_uninit(ptr noundef %0) #0 {
  %2 = alloca ptr, align 8
  %3 = alloca ptr, align 8
  %4 = alloca ptr, align 8
  store ptr %0, ptr %2, align 8, !tbaa !97
  call void @llvm.lifetime.start.p0(i64 8, ptr %3) #10
  %5 = load ptr, ptr %2, align 8, !tbaa !97
  %6 = getelementptr inbounds nuw %struct.AVHWFramesContext, ptr %5, i32 0, i32 3
  %7 = load ptr, ptr %6, align 8, !tbaa !99
  store ptr %7, ptr %3, align 8, !tbaa !103
  call void @llvm.lifetime.start.p0(i64 8, ptr %4) #10
  %8 = load ptr, ptr %3, align 8, !tbaa !103
  %9 = getelementptr inbounds nuw %struct.VAAPIFramesContext, ptr %8, i32 0, i32 0
  store ptr %9, ptr %4, align 8, !tbaa !105
  %10 = load ptr, ptr %4, align 8, !tbaa !105
  %11 = getelementptr inbounds nuw %struct.AVVAAPIFramesContext, ptr %10, i32 0, i32 2
  call void @av_freep(ptr noundef %11)
  %12 = load ptr, ptr %3, align 8, !tbaa !103
  %13 = getelementptr inbounds nuw %struct.VAAPIFramesContext, ptr %12, i32 0, i32 1
  call void @av_freep(ptr noundef %13)
  call void @llvm.lifetime.end.p0(i64 8, ptr %4) #10
  call void @llvm.lifetime.end.p0(i64 8, ptr %3) #10
  ret void
}